Certificate:
    Data:
        Version: 3 (0x2)
        Serial Number: 1 (0x1)
        Signature Algorithm: sha1WithRSAEncryption
        Issuer: C=it, ST=it, L=it, O=it, OU=it, CN=it/emailAddress=it
        Validity
            Not Before: Jun 15 17:48:58 2014 GMT
            Not After : Jun 12 17:48:58 2024 GMT
        Subject: C=it, ST=it, L=it, O=it, OU=it, CN=it/emailAddress=it
        Subject Public Key Info:
            Public Key Algorithm: rsaEncryption
            RSA Public Key: (1024 bit)
                Modulus (1024 bit):
                    00:b7:87:27:0e:07:d6:98:ca:ef:f7:63:a5:42:30:
                    0c:50:aa:12:ee:cc:6c:d1:b9:80:59:84:0f:f3:d6:
                    0d:81:4d:2b:85:44:ba:ff:54:35:6b:22:83:1c:d4:
                    78:d2:63:32:ea:9b:87:21:52:77:43:1a:ac:f7:91:
                    e7:88:aa:b0:c5:09:9b:1d:a9:8c:d1:34:ee:a3:f5:
                    c4:a4:7d:f8:37:cc:ea:d8:60:69:2f:1e:8a:dd:0a:
                    d1:e0:53:c4:8a:ad:8a:f2:8e:39:68:b5:70:0b:15:
                    2b:e9:1b:b6:28:01:55:1a:5e:9d:a8:df:68:c1:cd:
                    63:de:30:03:0a:b5:95:5f:c1
                Exponent: 65537 (0x10001)
        X509v3 extensions:
            X509v3 Basic Constraints: 
                CA:FALSE
            Netscape Cert Type: 
                SSL Server
            Netscape Comment: 
                Easy-RSA Generated Server Certificate
            X509v3 Subject Key Identifier: 
                0B:05:5B:47:EA:E4:34:D7:BF:49:CE:A1:69:92:A5:9B:6B:85:1B:A8
            X509v3 Authority Key Identifier: 
                keyid:43:04:48:9F:0D:80:10:33:8C:DA:A1:5F:C4:13:A7:64:32:87:57:E2
                DirName:/C=it/ST=it/L=it/O=it/OU=it/CN=it/emailAddress=it
                serial:84:C1:FC:82:52:1A:0A:04

            X509v3 Extended Key Usage: 
                TLS Web Server Authentication
            X509v3 Key Usage: 
                Digital Signature, Key Encipherment
    Signature Algorithm: sha1WithRSAEncryption
        05:fb:db:58:2d:89:6c:87:5d:ca:63:0e:4e:97:d9:43:71:b1:
        fa:5c:c4:f6:23:72:36:84:91:56:26:92:47:36:bb:55:ad:fb:
        d8:5a:f6:30:60:4c:6a:84:69:f8:3e:f1:76:8e:20:53:cd:9d:
        ae:c6:1d:9a:f0:db:95:c9:05:58:9d:09:10:ca:20:03:72:b6:
        99:20:f4:6e:ed:6b:36:6e:36:79:33:c7:76:74:ad:15:e9:aa:
        1e:86:4e:97:65:ab:df:8e:f4:f8:18:0a:24:1f:55:72:ed:8d:
        10:a1:6e:77:85:16:e9:65:06:1b:e9:80:aa:ca:28:3a:a2:66:
        dd:f2
-----BEGIN CERTIFICATE-----
MIIDaTCCAtKgAwIBAgIBATANBgkqhkiG9w0BAQUFADBhMQswCQYDVQQGEwJpdDEL
MAkGA1UECBMCaXQxCzAJBgNVBAcTAml0MQswCQYDVQQKEwJpdDELMAkGA1UECxMC
aXQxCzAJBgNVBAMTAml0MREwDwYJKoZIhvcNAQkBFgJpdDAeFw0xNDA2MTUxNzQ4
NThaFw0yNDA2MTIxNzQ4NThaMGExCzAJBgNVBAYTAml0MQswCQYDVQQIEwJpdDEL
MAkGA1UEBxMCaXQxCzAJBgNVBAoTAml0MQswCQYDVQQLEwJpdDELMAkGA1UEAxMC
aXQxETAPBgkqhkiG9w0BCQEWAml0MIGfMA0GCSqGSIb3DQEBAQUAA4GNADCBiQKB
gQC3hycOB9aYyu/3Y6VCMAxQqhLuzGzRuYBZhA/z1g2BTSuFRLr/VDVrIoMc1HjS
YzLqm4chUndDGqz3keeIqrDFCZsdqYzRNO6j9cSkffg3zOrYYGkvHordCtHgU8SK
rYryjjlotXALFSvpG7YoAVUaXp2o32jBzWPeMAMKtZVfwQIDAQABo4IBLzCCASsw
CQYDVR0TBAIwADARBglghkgBhvhCAQEEBAMCBkAwNAYJYIZIAYb4QgENBCcWJUVh
c3ktUlNBIEdlbmVyYXRlZCBTZXJ2ZXIgQ2VydGlmaWNhdGUwHQYDVR0OBBYEFAsF
W0fq5DTXv0nOoWmSpZtrhRuoMIGTBgNVHSMEgYswgYiAFEMESJ8NgBAzjNqhX8QT
p2Qyh1fioWWkYzBhMQswCQYDVQQGEwJpdDELMAkGA1UECBMCaXQxCzAJBgNVBAcT
Aml0MQswCQYDVQQKEwJpdDELMAkGA1UECxMCaXQxCzAJBgNVBAMTAml0MREwDwYJ
KoZIhvcNAQkBFgJpdIIJAITB/IJSGgoEMBMGA1UdJQQMMAoGCCsGAQUFBwMBMAsG
A1UdDwQEAwIFoDANBgkqhkiG9w0BAQUFAAOBgQAF+9tYLYlsh13KYw5Ol9lDcbH6
XMT2I3I2hJFWJpJHNrtVrfvYWvYwYExqhGn4PvF2jiBTzZ2uxh2a8NuVyQVYnQkQ
yiADcraZIPRu7Ws2bjZ5M8d2dK0V6aoehk6XZavfjvT4GAokH1Vy7Y0QoW53hRbp
ZQYb6YCqyig6ombd8g==
-----END CERTIFICATE-----
