Certificate:
    Data:
        Version: 3 (0x2)
        Serial Number: 2 (0x2)
        Signature Algorithm: sha1WithRSAEncryption
        Issuer: C=it, ST=it, L=it, O=it, OU=it, CN=it/emailAddress=it
        Validity
            Not Before: Jun 15 17:57:39 2014 GMT
            Not After : Jun 12 17:57:39 2024 GMT
        Subject: C=it, ST=it, L=it, O=it, OU=it, CN=it/emailAddress=it
        Subject Public Key Info:
            Public Key Algorithm: rsaEncryption
            RSA Public Key: (1024 bit)
                Modulus (1024 bit):
                    00:d8:6e:cc:9e:80:33:a0:ab:2b:15:86:cf:50:b4:
                    cf:8a:fa:70:5e:75:d6:ee:0d:1e:44:4e:a1:cf:f2:
                    37:f8:9c:44:98:85:68:fb:0f:1a:d1:5f:9a:9f:1e:
                    1b:37:d7:50:ce:f7:7d:c7:2f:1d:6a:1d:1a:98:a3:
                    b9:e8:5e:d4:0d:b7:97:a5:30:87:8f:a9:d0:9d:13:
                    5c:10:83:a0:2d:c3:79:97:dd:ec:8a:73:da:d9:08:
                    ab:e5:84:66:0b:eb:7c:5f:6c:6d:2f:28:a3:f7:20:
                    6c:71:93:d2:eb:d8:0f:35:c0:ed:c2:c4:f5:ad:28:
                    dd:2d:a4:90:d5:0b:81:84:c1
                Exponent: 65537 (0x10001)
        X509v3 extensions:
            X509v3 Basic Constraints: 
                CA:FALSE
            Netscape Comment: 
                Easy-RSA Generated Certificate
            X509v3 Subject Key Identifier: 
                4F:E6:F3:B6:67:33:30:1C:FA:BA:A9:6F:40:EA:40:18:5C:1C:BE:BD
            X509v3 Authority Key Identifier: 
                keyid:43:04:48:9F:0D:80:10:33:8C:DA:A1:5F:C4:13:A7:64:32:87:57:E2
                DirName:/C=it/ST=it/L=it/O=it/OU=it/CN=it/emailAddress=it
                serial:84:C1:FC:82:52:1A:0A:04

            X509v3 Extended Key Usage: 
                TLS Web Client Authentication
            X509v3 Key Usage: 
                Digital Signature
    Signature Algorithm: sha1WithRSAEncryption
        04:33:7d:bb:13:bb:38:a3:0c:10:ea:71:0a:28:6e:84:ba:80:
        61:47:61:a9:ff:bf:e0:7c:2f:74:db:56:c9:d5:2a:ab:38:4a:
        bb:ea:a8:27:2e:39:21:d6:ac:6a:a5:1b:5f:ec:60:bb:8c:d6:
        9b:b1:4d:dc:8d:6a:c1:fd:0d:e0:8a:e0:8a:8c:37:4b:50:c2:
        93:9f:38:2d:8c:7f:5d:e3:d4:54:ef:e5:ef:0f:ae:14:59:7b:
        19:81:08:47:12:f3:aa:9a:e2:b1:d7:bd:c3:d2:81:19:00:d9:
        d1:83:fd:70:0e:12:04:a7:46:09:2e:c8:71:93:02:97:8b:e5:
        15:61
-----BEGIN CERTIFICATE-----
MIIDTzCCArigAwIBAgIBAjANBgkqhkiG9w0BAQUFADBhMQswCQYDVQQGEwJpdDEL
MAkGA1UECBMCaXQxCzAJBgNVBAcTAml0MQswCQYDVQQKEwJpdDELMAkGA1UECxMC
aXQxCzAJBgNVBAMTAml0MREwDwYJKoZIhvcNAQkBFgJpdDAeFw0xNDA2MTUxNzU3
MzlaFw0yNDA2MTIxNzU3MzlaMGExCzAJBgNVBAYTAml0MQswCQYDVQQIEwJpdDEL
MAkGA1UEBxMCaXQxCzAJBgNVBAoTAml0MQswCQYDVQQLEwJpdDELMAkGA1UEAxMC
aXQxETAPBgkqhkiG9w0BCQEWAml0MIGfMA0GCSqGSIb3DQEBAQUAA4GNADCBiQKB
gQDYbsyegDOgqysVhs9QtM+K+nBeddbuDR5ETqHP8jf4nESYhWj7DxrRX5qfHhs3
11DO933HLx1qHRqYo7noXtQNt5elMIePqdCdE1wQg6Atw3mX3eyKc9rZCKvlhGYL
63xfbG0vKKP3IGxxk9Lr2A81wO3CxPWtKN0tpJDVC4GEwQIDAQABo4IBFTCCAREw
CQYDVR0TBAIwADAtBglghkgBhvhCAQ0EIBYeRWFzeS1SU0EgR2VuZXJhdGVkIENl
cnRpZmljYXRlMB0GA1UdDgQWBBRP5vO2ZzMwHPq6qW9A6kAYXBy+vTCBkwYDVR0j
BIGLMIGIgBRDBEifDYAQM4zaoV/EE6dkModX4qFlpGMwYTELMAkGA1UEBhMCaXQx
CzAJBgNVBAgTAml0MQswCQYDVQQHEwJpdDELMAkGA1UEChMCaXQxCzAJBgNVBAsT
Aml0MQswCQYDVQQDEwJpdDERMA8GCSqGSIb3DQEJARYCaXSCCQCEwfyCUhoKBDAT
BgNVHSUEDDAKBggrBgEFBQcDAjALBgNVHQ8EBAMCB4AwDQYJKoZIhvcNAQEFBQAD
gYEABDN9uxO7OKMMEOpxCihuhLqAYUdhqf+/4HwvdNtWydUqqzhKu+qoJy45Idas
aqUbX+xgu4zWm7FN3I1qwf0N4Irgiow3S1DCk584LYx/XePUVO/l7w+uFFl7GYEI
RxLzqprisde9w9KBGQDZ0YP9cA4SBKdGCS7IcZMCl4vlFWE=
-----END CERTIFICATE-----
